; Function Attrs: mustprogress nofree nounwind willreturn memory(read, inaccessiblemem: none) uwtable
define noundef zeroext i1 @_ZNK6icu_773LSReqERKS0_(ptr noundef nonnull readonly align 8 captures(none) dereferenceable(48) %0, ptr noundef nonnull readonly align 8 captures(none) dereferenceable(48) %1) local_unnamed_addr #12 align 2 {
  %3 = load ptr, ptr %0, align 8, !tbaa !24
  %4 = load ptr, ptr %1, align 8, !tbaa !24
  %5 = tail call i32 @strcmp(ptr noundef nonnull dereferenceable(1) %3, ptr noundef nonnull dereferenceable(1) %4) #19
  %6 = icmp eq i32 %5, 0
  br i1 %6, label %7, label %35

7:                                                ; preds = %2
  %8 = getelementptr inbounds nuw i8, ptr %0, i64 8
  %9 = load ptr, ptr %8, align 8, !tbaa !25
  %10 = getelementptr inbounds nuw i8, ptr %1, i64 8
  %11 = load ptr, ptr %10, align 8, !tbaa !25
  %12 = tail call i32 @strcmp(ptr noundef nonnull dereferenceable(1) %9, ptr noundef nonnull dereferenceable(1) %11) #19
  %13 = icmp eq i32 %12, 0
  br i1 %13, label %14, label %35

14:                                               ; preds = %7
  %15 = getelementptr inbounds nuw i8, ptr %0, i64 32
  %16 = load i32, ptr %15, align 8, !tbaa !19
  %17 = getelementptr inbounds nuw i8, ptr %1, i64 32
  %18 = load i32, ptr %17, align 8, !tbaa !19
  %19 = icmp eq i32 %16, %18
  br i1 %19, label %20, label %35

20:                                               ; preds = %14
  %21 = icmp sgt i32 %16, 0
  br i1 %21, label %29, label %22

22:                                               ; preds = %20
  %23 = getelementptr inbounds nuw i8, ptr %0, i64 16
  %24 = load ptr, ptr %23, align 8, !tbaa !15
  %25 = getelementptr inbounds nuw i8, ptr %1, i64 16
  %26 = load ptr, ptr %25, align 8, !tbaa !15
  %27 = tail call i32 @strcmp(ptr noundef nonnull dereferenceable(1) %24, ptr noundef nonnull dereferenceable(1) %26) #19
  %28 = icmp eq i32 %27, 0
  br i1 %28, label %29, label %35

29:                                               ; preds = %22, %20
  %30 = getelementptr inbounds nuw i8, ptr %0, i64 36
  %31 = load i32, ptr %30, align 4, !tbaa !20
  %32 = getelementptr inbounds nuw i8, ptr %1, i64 36
  %33 = load i32, ptr %32, align 4, !tbaa !20
  %34 = icmp eq i32 %31, %33
  br label %35

35:                                               ; preds = %29, %22, %14, %7, %2
  %36 = phi i1 [ false, %22 ], [ false, %14 ], [ false, %7 ], [ false, %2 ], [ %34, %29 ]
  ret i1 %36
}